target datalayout = "e-m:e-p270:32:32-p271:32:32-p272:64:64-i64:64-i128:128-f80:128-n8:16:32:64-S128"
target triple = "x86_64-pc-linux-gnu"

%struct.expert_field = type { i32, i32 }

@hf_pn_io_domain_boundary = internal global i32 0, align 4
@hf_pn_io_domain_boundary_ingress = internal global i32 0, align 4
@hf_pn_io_domain_boundary_egress = internal global i32 0, align 4
@hf_pn_io_adjust_properties = internal global i32 0, align 4
@ei_pn_io_block_version = internal global %struct.expert_field zeroinitializer, align 4
@.str.1317 = private unnamed_addr constant [41 x i8] c"Block version %u.%u not implemented yet!\00", align 1
@.str.1558 = private unnamed_addr constant [33 x i8] c": Boundary:0x%x, Properties:0x%x\00", align 1
@.str.1559 = private unnamed_addr constant [61 x i8] c": BoundaryIngress:0x%x, BoundaryEgress:0x%x, Properties:0x%x\00", align 1

; Function Attrs: nounwind uwtable
define internal i32 @dissect_AdjustDomainBoundary_block(ptr noundef %0, i32 noundef %1, ptr noundef %2, ptr noundef %3, ptr noundef %4, ptr noundef %5, i8 noundef zeroext %6, i8 noundef zeroext %7) #0 {
  %9 = alloca i32, align 4
  %10 = alloca ptr, align 8
  %11 = alloca i32, align 4
  %12 = alloca ptr, align 8
  %13 = alloca ptr, align 8
  %14 = alloca ptr, align 8
  %15 = alloca ptr, align 8
  %16 = alloca i8, align 1
  %17 = alloca i8, align 1
  %18 = alloca i32, align 4
  %19 = alloca i32, align 4
  %20 = alloca i32, align 4
  %21 = alloca i16, align 2
  store ptr %0, ptr %10, align 8
  store i32 %1, ptr %11, align 4
  store ptr %2, ptr %12, align 8
  store ptr %3, ptr %13, align 8
  store ptr %4, ptr %14, align 8
  store ptr %5, ptr %15, align 8
  store i8 %6, ptr %16, align 1
  store i8 %7, ptr %17, align 1
  %22 = load i8, ptr %16, align 1
  %23 = zext i8 %22 to i32
  %24 = icmp ne i32 %23, 1
  br i1 %24, label %33, label %25

25:                                               ; preds = %8
  %26 = load i8, ptr %17, align 1
  %27 = zext i8 %26 to i32
  %28 = icmp ne i32 %27, 0
  br i1 %28, label %29, label %42

29:                                               ; preds = %25
  %30 = load i8, ptr %17, align 1
  %31 = zext i8 %30 to i32
  %32 = icmp ne i32 %31, 1
  br i1 %32, label %33, label %42

33:                                               ; preds = %29, %8
  %34 = load ptr, ptr %12, align 8
  %35 = load ptr, ptr %14, align 8
  %36 = load i8, ptr %16, align 1
  %37 = zext i8 %36 to i32
  %38 = load i8, ptr %17, align 1
  %39 = zext i8 %38 to i32
  %40 = call ptr (ptr, ptr, ptr, ptr, ...) @expert_add_info_format(ptr noundef %34, ptr noundef %35, ptr noundef @ei_pn_io_block_version, ptr noundef @.str.1317, i32 noundef %37, i32 noundef %39)
  %41 = load i32, ptr %11, align 4
  store i32 %41, ptr %9, align 4
  br label %117

42:                                               ; preds = %29, %25
  %43 = load ptr, ptr %10, align 8
  %44 = load i32, ptr %11, align 4
  %45 = load ptr, ptr %12, align 8
  %46 = load ptr, ptr %13, align 8
  %47 = call i32 @dissect_pn_align4(ptr noundef %43, i32 noundef %44, ptr noundef %45, ptr noundef %46)
  store i32 %47, ptr %11, align 4
  %48 = load i8, ptr %17, align 1
  %49 = zext i8 %48 to i32
  switch i32 %49, label %106 [
    i32 0, label %50
    i32 1, label %74
  ]

50:                                               ; preds = %42
  %51 = load ptr, ptr %10, align 8
  %52 = load i32, ptr %11, align 4
  %53 = load ptr, ptr %12, align 8
  %54 = load ptr, ptr %13, align 8
  %55 = load ptr, ptr %15, align 8
  %56 = load i32, ptr @hf_pn_io_domain_boundary, align 4
  %57 = call i32 @dissect_dcerpc_uint32(ptr noundef %51, i32 noundef %52, ptr noundef %53, ptr noundef %54, ptr noundef %55, i32 noundef %56, ptr noundef %18)
  store i32 %57, ptr %11, align 4
  %58 = load ptr, ptr %10, align 8
  %59 = load i32, ptr %11, align 4
  %60 = load ptr, ptr %12, align 8
  %61 = load ptr, ptr %13, align 8
  %62 = load ptr, ptr %15, align 8
  %63 = load i32, ptr @hf_pn_io_adjust_properties, align 4
  %64 = call i32 @dissect_dcerpc_uint16(ptr noundef %58, i32 noundef %59, ptr noundef %60, ptr noundef %61, ptr noundef %62, i32 noundef %63, ptr noundef %21)
  store i32 %64, ptr %11, align 4
  %65 = load ptr, ptr %10, align 8
  %66 = load i32, ptr %11, align 4
  %67 = load ptr, ptr %12, align 8
  %68 = load ptr, ptr %13, align 8
  %69 = call i32 @dissect_pn_align4(ptr noundef %65, i32 noundef %66, ptr noundef %67, ptr noundef %68)
  store i32 %69, ptr %11, align 4
  %70 = load ptr, ptr %14, align 8
  %71 = load i32, ptr %18, align 4
  %72 = load i16, ptr %21, align 2
  %73 = zext i16 %72 to i32
  call void (ptr, ptr, ...) @proto_item_append_text(ptr noundef %70, ptr noundef @.str.1558, i32 noundef %71, i32 noundef %73)
  br label %115

74:                                               ; preds = %42
  %75 = load ptr, ptr %10, align 8
  %76 = load i32, ptr %11, align 4
  %77 = load ptr, ptr %12, align 8
  %78 = load ptr, ptr %13, align 8
  %79 = load ptr, ptr %15, align 8
  %80 = load i32, ptr @hf_pn_io_domain_boundary_ingress, align 4
  %81 = call i32 @dissect_dcerpc_uint32(ptr noundef %75, i32 noundef %76, ptr noundef %77, ptr noundef %78, ptr noundef %79, i32 noundef %80, ptr noundef %19)
  store i32 %81, ptr %11, align 4
  %82 = load ptr, ptr %10, align 8
  %83 = load i32, ptr %11, align 4
  %84 = load ptr, ptr %12, align 8
  %85 = load ptr, ptr %13, align 8
  %86 = load ptr, ptr %15, align 8
  %87 = load i32, ptr @hf_pn_io_domain_boundary_egress, align 4
  %88 = call i32 @dissect_dcerpc_uint32(ptr noundef %82, i32 noundef %83, ptr noundef %84, ptr noundef %85, ptr noundef %86, i32 noundef %87, ptr noundef %20)
  store i32 %88, ptr %11, align 4
  %89 = load ptr, ptr %10, align 8
  %90 = load i32, ptr %11, align 4
  %91 = load ptr, ptr %12, align 8
  %92 = load ptr, ptr %13, align 8
  %93 = load ptr, ptr %15, align 8
  %94 = load i32, ptr @hf_pn_io_adjust_properties, align 4
  %95 = call i32 @dissect_dcerpc_uint16(ptr noundef %89, i32 noundef %90, ptr noundef %91, ptr noundef %92, ptr noundef %93, i32 noundef %94, ptr noundef %21)
  store i32 %95, ptr %11, align 4
  %96 = load ptr, ptr %10, align 8
  %97 = load i32, ptr %11, align 4
  %98 = load ptr, ptr %12, align 8
  %99 = load ptr, ptr %13, align 8
  %100 = call i32 @dissect_pn_align4(ptr noundef %96, i32 noundef %97, ptr noundef %98, ptr noundef %99)
  store i32 %100, ptr %11, align 4
  %101 = load ptr, ptr %14, align 8
  %102 = load i32, ptr %19, align 4
  %103 = load i32, ptr %20, align 4
  %104 = load i16, ptr %21, align 2
  %105 = zext i16 %104 to i32
  call void (ptr, ptr, ...) @proto_item_append_text(ptr noundef %101, ptr noundef @.str.1559, i32 noundef %102, i32 noundef %103, i32 noundef %105)
  br label %115

106:                                              ; preds = %42
  %107 = load ptr, ptr %12, align 8
  %108 = load ptr, ptr %14, align 8
  %109 = load i8, ptr %16, align 1
  %110 = zext i8 %109 to i32
  %111 = load i8, ptr %17, align 1
  %112 = zext i8 %111 to i32
  %113 = call ptr (ptr, ptr, ptr, ptr, ...) @expert_add_info_format(ptr noundef %107, ptr noundef %108, ptr noundef @ei_pn_io_block_version, ptr noundef @.str.1317, i32 noundef %110, i32 noundef %112)
  %114 = load i32, ptr %11, align 4
  store i32 %114, ptr %9, align 4
  br label %117

115:                                              ; preds = %74, %50
  %116 = load i32, ptr %11, align 4
  store i32 %116, ptr %9, align 4
  br label %117

117:                                              ; preds = %115, %106, %33
  %118 = load i32, ptr %9, align 4
  ret i32 %118
}