; Function Attrs: nounwind uwtable
define internal fastcc void @dissect_AdjustDomainBoundary_block(ptr noundef %0, i32 noundef %1, ptr noundef %2, ptr noundef %3, ptr noundef %4, ptr noundef %5, i8 noundef zeroext %6, i8 noundef zeroext %7) unnamed_addr #0 {
  %9 = alloca i32, align 4
  %10 = alloca i32, align 4
  %11 = alloca i32, align 4
  %12 = alloca i16, align 2
  %.not = icmp ne i8 %6, 1
  %or.cond = icmp ugt i8 %7, 1
  %or.cond59 = or i1 %.not, %or.cond
  br i1 %or.cond59, label %13, label %17

13:                                               ; preds = %8
  %14 = zext i8 %6 to i32
  %15 = zext i8 %7 to i32
  %16 = tail call ptr (ptr, ptr, ptr, ptr, ...) @expert_add_info_format(ptr noundef %2, ptr noundef %4, ptr noundef nonnull @ei_pn_io_block_version, ptr noundef nonnull @.str.1317, i32 noundef %14, i32 noundef %15) #11
  br label %40

17:                                               ; preds = %8
  %18 = tail call i32 @dissect_pn_align4(ptr noundef %0, i32 noundef %1, ptr noundef %2, ptr noundef %3) #11
  %trunc = trunc nuw i8 %7 to i1
  br i1 %trunc, label %28, label %19

19:                                               ; preds = %17
  %20 = load i32, ptr @hf_pn_io_domain_boundary, align 4
  %21 = call i32 @dissect_dcerpc_uint32(ptr noundef %0, i32 noundef %18, ptr noundef %2, ptr noundef %3, ptr noundef %5, i32 noundef %20, ptr noundef nonnull %9) #11
  %22 = load i32, ptr @hf_pn_io_adjust_properties, align 4
  %23 = call i32 @dissect_dcerpc_uint16(ptr noundef %0, i32 noundef %21, ptr noundef %2, ptr noundef %3, ptr noundef %5, i32 noundef %22, ptr noundef nonnull %12) #11
  %24 = call i32 @dissect_pn_align4(ptr noundef %0, i32 noundef %23, ptr noundef %2, ptr noundef %3) #11
  %25 = load i32, ptr %9, align 4
  %26 = load i16, ptr %12, align 2
  %27 = zext i16 %26 to i32
  call void (ptr, ptr, ...) @proto_item_append_text(ptr noundef %4, ptr noundef nonnull @.str.1558, i32 noundef %25, i32 noundef %27) #11
  br label %40

28:                                               ; preds = %17
  %29 = load i32, ptr @hf_pn_io_domain_boundary_ingress, align 4
  %30 = call i32 @dissect_dcerpc_uint32(ptr noundef %0, i32 noundef %18, ptr noundef %2, ptr noundef %3, ptr noundef %5, i32 noundef %29, ptr noundef nonnull %10) #11
  %31 = load i32, ptr @hf_pn_io_domain_boundary_egress, align 4
  %32 = call i32 @dissect_dcerpc_uint32(ptr noundef %0, i32 noundef %30, ptr noundef %2, ptr noundef %3, ptr noundef %5, i32 noundef %31, ptr noundef nonnull %11) #11
  %33 = load i32, ptr @hf_pn_io_adjust_properties, align 4
  %34 = call i32 @dissect_dcerpc_uint16(ptr noundef %0, i32 noundef %32, ptr noundef %2, ptr noundef %3, ptr noundef %5, i32 noundef %33, ptr noundef nonnull %12) #11
  %35 = call i32 @dissect_pn_align4(ptr noundef %0, i32 noundef %34, ptr noundef %2, ptr noundef %3) #11
  %36 = load i32, ptr %10, align 4
  %37 = load i32, ptr %11, align 4
  %38 = load i16, ptr %12, align 2
  %39 = zext i16 %38 to i32
  call void (ptr, ptr, ...) @proto_item_append_text(ptr noundef %4, ptr noundef nonnull @.str.1559, i32 noundef %36, i32 noundef %37, i32 noundef %39) #11
  br label %40

40:                                               ; preds = %19, %28, %13
  ret void
}